(dp0
VServer
p1
Vcmsweb.cern.ch
p2
sVPort
p3
V
p4
sVRequestName
p5
V230324_102814:sosarkar_crab_DYJetsToLL_M50_UL2018
p6
sVvoRole
p7
VNULL
p8
sVvoGroup
p9
g4
sVinstance
p10
Vprod
p11
sVOriginalConfig
p12
ccopy_reg
_reconstructor
p13
(cWMCore.Configuration
Configuration
p14
c__builtin__
object
p15
Ntp16
Rp17
(dp18
V_internal_sections
p19
(lp20
VGeneral
p21
aVJobType
p22
aVData
p23
aVSite
p24
asg21
g13
(cWMCore.Configuration
ConfigSection
p25
g15
Ntp26
Rp27
(dp28
V_internal_documentation
p29
g4
sV_internal_name
p30
g21
sV_internal_settings
p31
c__builtin__
set
p32
((lp33
VtransferLogs
p34
aVrequestName
p35
atp36
Rp37
sV_internal_docstrings
p38
(dp39
sV_internal_children
p40
g32
((lp41
tp42
Rp43
sV_internal_parent_ref
p44
NsV_internal_skipChecks
p45
I00
sg35
VDYJetsToLL_M50_UL2018
p46
sg34
I01
sbsg22
g13
(g25
g15
Ntp47
Rp48
(dp49
g29
g4
sg30
g22
sg31
g32
((lp50
VpsetName
p51
aVpluginName
p52
aVsendPythonFolder
p53
aVallowUndistributedCMSSW
p54
atp55
Rp56
sg38
(dp57
sg40
g32
((lp58
tp59
Rp60
sg44
Nsg45
I00
sg54
I01
sg52
VAnalysis
p61
sg51
V/afs/cern.ch/user/s/sosarkar/MYDEMOANALYZER/CMSSW_12_0_0/src/Demo_e_gamma/Analyzer_egamma/python/ConfFile_cfg.py
p62
sg53
I01
sbsg23
g13
(g25
g15
Ntp63
Rp64
(dp65
g29
g4
sg30
g23
sg31
g32
((lp66
VoutLFNDirBase
p67
aVsplitting
p68
aVpublication
p69
aVoutputDatasetTag
p70
aVtotalUnits
p71
aVinputDBS
p72
aVallowNonValidInputDataset
p73
aVunitsPerJob
p74
aVinputDataset
p75
atp76
Rp77
sg38
(dp78
sg40
g32
((lp79
tp80
Rp81
sg44
Nsg45
I00
sg75
V/DYJetsToLL_M-500to700_TuneCP5_13TeV-amcatnloFXFX-pythia8/RunIISummer20UL18RECO-106X_upgrade2018_realistic_v11_L1v1-v3/AODSIM
p82
sg72
Vglobal
p83
sg73
I01
sg68
VFileBased
p84
sg71
I51
sg74
I5
sg67
V/store/user/sosarkar/DYJetsToLL_M50
p85
sg69
I00
sg70
VDYJetsToLL_M50
p86
sbsg24
g13
(g25
g15
Ntp87
Rp88
(dp89
g29
g4
sg30
g24
sg31
g32
((lp90
VstorageSite
p91
atp92
Rp93
sg38
(dp94
sg40
g32
((lp95
tp96
Rp97
sg44
Nsg45
I00
sg91
VT3_CH_CERNBOX
p98
sbsbs.