ccopy_reg
_reconstructor
p0
(cFWCore.ParameterSet.Config
Process
p1
c__builtin__
object
p2
Ntp3
Rp4
(dp5
V_Process__name
p6
VDemo
p7
sV_Process__filters
p8
(dp9
sV_Process__producers
p10
(dp11
sV_Process__switchproducers
p12
(dp13
sV_Process__source
p14
g0
(cFWCore.ParameterSet.Modules
Source
p15
g2
Ntp16
Rp17
(dp18
V_TypedParameterizable__type
p19
VPoolSource
p20
sV_Parameterizable__parameterNames
p21
(lp22
VfileNames
p23
asV_isFrozen
p24
I00
sV_Parameterizable__validator
p25
Nsg23
g0
(cFWCore.ParameterSet.Types
vstring
p26
c__builtin__
list
p27
(lp28
Vfile:/eos/user/s/sosarkar/1EE5922B-BCBD-2844-82A1-2A6BB9B4ACD3.root
p29
atp30
Rp31
(dp32
g24
I00
sV_ParameterTypeBase__isTracked
p33
I00
sV_isModified
p34
I00
sV_nPerLine
p35
I1
sbsg34
I00
sV_filename
p36
V/cvmfs/cms.cern.ch/slc7_amd64_gcc10/cms/cmssw/CMSSW_12_0_0/python/FWCore/ParameterSet/Modules.py
p37
sV_lineNumber
p38
I195
sbsV_Process__looper
p39
NsV_Process__subProcesses
p40
(lp41
sV_Process__schedule
p42
NsV_Process__analyzers
p43
(dp44
Vdemo
p45
g0
(cFWCore.ParameterSet.Modules
EDAnalyzer
p46
g2
Ntp47
Rp48
(dp49
g19
VAnalyzer_egamma
p50
sg21
(lp51
Vgsf_electron
p52
asg24
I00
sg25
Nsg52
g0
(cFWCore.ParameterSet.Types
InputTag
p53
g2
Ntp54
Rp55
(dp56
g24
I00
sg33
I01
sg34
I00
sV_InputTag__moduleLabel
p57
VuncleanedOnlyGsfElectrons
p58
sV_InputTag__productInstance
p59
V
p60
sV_InputTag__processName
p61
g60
sbsg34
I00
sg36
V/afs/cern.ch/user/s/sosarkar/MYDEMOANALYZER/CMSSW_12_0_0/src/Demo_e_gamma/Analyzer_egamma/python/ConfFile_cfg.py
p62
sg38
I20
sV_Labelable__label
p63
g45
sbssV_Process__outputmodules
p64
(dp65
sV_Process__paths
p66
g0
(cFWCore.ParameterSet.DictTypes
SortedKeysDict
p67
c__builtin__
dict
p68
(dp69
Vp
p70
g0
(cFWCore.ParameterSet.SequenceTypes
Path
p71
g2
Ntp72
Rp73
(dp74
g24
I00
sV_seq
p75
g0
(cFWCore.ParameterSet.SequenceTypes
_SequenceCollection
p76
g2
Ntp77
Rp78
(dp79
V_collection
p80
(lp81
g48
asbsg34
I00
sV_tasks
p82
g0
(cFWCore.ParameterSet.OrderedSet
OrderedSet
p83
g2
Ntp84
Rp85
(dp86
Vend
p87
(lp88
Nag88
ag88
asVmap
p89
(dp90
sbsg63
g70
sbstp91
Rp92
(dp93
Vlist
p94
(lp95
g70
asbsV_Process__endpaths
p96
g0
(g67
g68
(dp97
tp98
Rp99
(dp100
g94
(lp101
sbsV_Process__sequences
p102
(dp103
sV_Process__tasks
p104
(dp105
sV_Process__services
p106
(dp107
VMessageLogger
p108
g0
(cFWCore.ParameterSet.Modules
Service
p109
g2
Ntp110
Rp111
(dp112
g19
g108
sg21
(lp113
VsuppressWarning
p114
aVsuppressFwkInfo
p115
aVsuppressInfo
p116
aVsuppressDebug
p117
aVdebugModules
p118
aVcout
p119
aVdefault
p120
aVcerr
p121
aVfiles
p122
asg24
I00
sg25
g0
(cFWCore.ParameterSet.Types
_OptionalParameter
p123
g2
Ntp124
Rp125
(dp126
g24
I00
sg33
I00
sg34
I00
sV_ProxyParameter__type
p127
g0
(cFWCore.ParameterSet.Types
_PSetTemplate
p128
g2
Ntp129
Rp130
(dp131
V_pset
p132
g0
(cFWCore.ParameterSet.Types
PSet
p133
g2
Ntp134
Rp135
(dp136
g24
I00
sg33
I01
sg34
I00
sg21
(lp137
VreportEvery
p138
aVlimit
p139
aVtimespan
p140
asg25
Nsg138
g0
(cFWCore.ParameterSet.Types
int32
p141
g2
Ntp142
Rp143
(dp144
g24
I00
sg33
I00
sg34
I00
sV_value
p145
I1
sbsg139
g0
(g123
g2
Ntp146
Rp147
(dp148
g24
I00
sg33
I00
sg34
I00
sg127
g141
sV_ProxyParameter__value
p149
Nsbsg140
g0
(g123
g2
Ntp150
Rp151
(dp152
g24
I00
sg33
I00
sg34
I00
sg127
g141
sg149
NsbsbsV_PSetTemplate__value
p153
Nsbsg149
Nsbsg114
g0
(g26
g27
(lp154
tp155
Rp156
(dp157
g24
I00
sg33
I00
sg34
I00
sg35
I1
sbsg34
I00
sg115
g0
(g26
g27
(lp158
tp159
Rp160
(dp161
g24
I00
sg33
I00
sg34
I00
sg35
I1
sbsg116
g0
(g26
g27
(lp162
tp163
Rp164
(dp165
g24
I00
sg33
I00
sg34
I00
sg35
I1
sbsg117
g0
(g26
g27
(lp166
tp167
Rp168
(dp169
g24
I00
sg33
I00
sg34
I00
sg35
I1
sbsg118
g0
(g26
g27
(lp170
tp171
Rp172
(dp173
g24
I00
sg33
I00
sg34
I00
sg35
I1
sbsg119
g0
(g133
g2
Ntp174
Rp175
(dp176
g24
I00
sg33
I00
sg34
I00
sg21
(lp177
VnoLineBreaks
p178
aVnoTimeStamps
p179
aVlineLength
p180
aVthreshold
p181
aVstatisticsThreshold
p182
aVenableStatistics
p183
aVresetStatistics
p184
aVenable
p185
asg25
g125
sg178
g0
(g123
g2
Ntp186
Rp187
(dp188
g24
I00
sg33
I00
sg34
I00
sg127
cFWCore.ParameterSet.Types
bool
p189
sg149
Nsbsg179
g0
(g123
g2
Ntp190
Rp191
(dp192
g24
I00
sg33
I00
sg34
I00
sg127
g189
sg149
Nsbsg180
g0
(g123
g2
Ntp193
Rp194
(dp195
g24
I00
sg33
I00
sg34
I00
sg127
g141
sg149
Nsbsg181
g0
(g123
g2
Ntp196
Rp197
(dp198
g24
I00
sg33
I00
sg34
I00
sg127
cFWCore.ParameterSet.Types
string
p199
sg149
Nsbsg182
g0
(g123
g2
Ntp200
Rp201
(dp202
g24
I00
sg33
I00
sg34
I00
sg127
g199
sg149
Nsbsg183
g0
(g189
g2
Ntp203
Rp204
(dp205
g24
I00
sg33
I00
sg34
I00
sg145
I00
sbsg184
g0
(g189
g2
Ntp206
Rp207
(dp208
g24
I00
sg33
I00
sg34
I00
sg145
I00
sbsg185
g0
(g189
g2
Ntp209
Rp210
(dp211
g24
I00
sg33
I00
sg34
I00
sg145
I00
sbsbsg120
g0
(g133
g2
Ntp212
Rp213
(dp214
g24
I00
sg33
I00
sg34
I00
sg21
(lp215
g138
ag139
ag140
ag178
ag179
ag180
ag181
ag182
asg25
g125
sg138
g0
(g141
g2
Ntp216
Rp217
(dp218
g24
I00
sg33
I00
sg34
I00
sg145
I1
sbsg139
g0
(g123
g2
Ntp219
Rp220
(dp221
g24
I00
sg33
I00
sg34
I00
sg127
g141
sg149
Nsbsg140
g0
(g123
g2
Ntp222
Rp223
(dp224
g24
I00
sg33
I00
sg34
I00
sg127
g141
sg149
Nsbsg178
g0
(g189
g2
Ntp225
Rp226
(dp227
g24
I00
sg33
I00
sg34
I00
sg145
I00
sbsg179
g0
(g189
g2
Ntp228
Rp229
(dp230
g24
I00
sg33
I00
sg34
I00
sg145
I00
sbsg180
g0
(g141
g2
Ntp231
Rp232
(dp233
g24
I00
sg33
I00
sg34
I00
sg145
I80
sbsg181
g0
(g199
g2
Ntp234
Rp235
(dp236
g24
I00
sg33
I00
sg34
I00
sg145
VINFO
p237
sbsg182
g0
(g199
g2
Ntp238
Rp239
(dp240
g24
I00
sg33
I00
sg34
I00
sg145
g237
sbsbsg121
g0
(g133
g2
Ntp241
Rp242
(dp243
g24
I00
sg33
I00
sg34
I00
sg21
(lp244
g178
ag179
ag180
ag181
ag182
ag185
ag183
ag184
ag237
aVFwkReport
p245
ag120
aVRoot_NoDictionary
p246
aVFwkSummary
p247
asg25
g125
sg178
g0
(g123
g2
Ntp248
Rp249
(dp250
g24
I00
sg33
I00
sg34
I00
sg127
g189
sg149
Nsbsg179
g0
(g189
g2
Ntp251
Rp252
(dp253
g24
I00
sg33
I00
sg34
I00
sg145
I00
sbsg180
g0
(g123
g2
Ntp254
Rp255
(dp256
g24
I00
sg33
I00
sg34
I00
sg127
g141
sg149
Nsbsg181
g0
(g199
g2
Ntp257
Rp258
(dp259
g24
I00
sg33
I00
sg34
I00
sg145
g237
sbsg182
g0
(g199
g2
Ntp260
Rp261
(dp262
g24
I00
sg33
I00
sg34
I00
sg145
VWARNING
p263
sbsg185
g0
(g189
g2
Ntp264
Rp265
(dp266
g24
I00
sg33
I00
sg34
I00
sg145
I01
sbsg183
g0
(g189
g2
Ntp267
Rp268
(dp269
g24
I00
sg33
I00
sg34
I00
sg145
I01
sbsg184
g0
(g189
g2
Ntp270
Rp271
(dp272
g24
I00
sg33
I00
sg34
I00
sg145
I00
sbsg237
g0
(g133
g2
Ntp273
Rp274
(dp275
g24
I00
sg33
I00
sg34
I00
sg21
(lp276
g139
asg25
Nsg139
g0
(g141
g2
Ntp277
Rp278
(dp279
g24
I00
sg33
I00
sg34
I00
sg145
I0
sbsbsg245
g0
(g133
g2
Ntp280
Rp281
(dp282
g24
I00
sg33
I00
sg34
I00
sg21
(lp283
g138
ag139
asg25
Nsg138
g0
(g141
g2
Ntp284
Rp285
(dp286
g24
I00
sg33
I00
sg34
I00
sg145
I1
sbsg139
g0
(g141
g2
Ntp287
Rp288
(dp289
g24
I00
sg33
I00
sg34
I00
sg145
I10000000
sbsbsg120
g0
(g133
g2
Ntp290
Rp291
(dp292
g24
I00
sg33
I00
sg34
I00
sg21
(lp293
g139
asg25
Nsg139
g0
(g141
g2
Ntp294
Rp295
(dp296
g24
I00
sg33
I00
sg34
I00
sg145
I10000000
sbsbsg246
g0
(g133
g2
Ntp297
Rp298
(dp299
g24
I00
sg33
I00
sg34
I00
sg21
(lp300
g139
asg25
Nsg139
g0
(g141
g2
Ntp301
Rp302
(dp303
g24
I00
sg33
I00
sg34
I00
sg145
I0
sbsbsg247
g0
(g133
g2
Ntp304
Rp305
(dp306
g24
I00
sg33
I00
sg34
I00
sg21
(lp307
g138
ag139
asg25
Nsg138
g0
(g141
g2
Ntp308
Rp309
(dp310
g24
I00
sg33
I00
sg34
I00
sg145
I1
sbsg139
g0
(g141
g2
Ntp311
Rp312
(dp313
g24
I00
sg33
I00
sg34
I00
sg145
I10000000
sbsbsbsg122
g0
(g133
g2
Ntp314
Rp315
(dp316
g24
I00
sg33
I00
sg34
I00
sg21
(lp317
sg25
g0
(g123
g2
Ntp318
Rp319
(dp320
g24
I00
sg33
I00
sg34
I00
sg127
g0
(g128
g2
Ntp321
Rp322
(dp323
g132
g0
(g133
g2
Ntp324
Rp325
(dp326
g24
I00
sg33
I01
sg34
I00
sg21
(lp327
g178
ag179
ag180
ag181
ag182
ag183
ag184
aVfilename
p328
aVextension
p329
aVoutput
p330
asg25
g125
sg178
g0
(g123
g2
Ntp331
Rp332
(dp333
g24
I00
sg33
I00
sg34
I00
sg127
g189
sg149
Nsbsg179
g0
(g123
g2
Ntp334
Rp335
(dp336
g24
I00
sg33
I00
sg34
I00
sg127
g189
sg149
Nsbsg180
g0
(g123
g2
Ntp337
Rp338
(dp339
g24
I00
sg33
I00
sg34
I00
sg127
g141
sg149
Nsbsg181
g0
(g123
g2
Ntp340
Rp341
(dp342
g24
I00
sg33
I00
sg34
I00
sg127
g199
sg149
Nsbsg182
g0
(g123
g2
Ntp343
Rp344
(dp345
g24
I00
sg33
I00
sg34
I00
sg127
g199
sg149
Nsbsg183
g0
(g189
g2
Ntp346
Rp347
(dp348
g24
I00
sg33
I00
sg34
I00
sg145
I00
sbsg184
g0
(g189
g2
Ntp349
Rp350
(dp351
g24
I00
sg33
I00
sg34
I00
sg145
I00
sbsg328
g0
(g123
g2
Ntp352
Rp353
(dp354
g24
I00
sg33
I00
sg34
I00
sg127
g199
sg149
Nsbsg329
g0
(g123
g2
Ntp355
Rp356
(dp357
g24
I00
sg33
I00
sg34
I00
sg127
g199
sg149
Nsbsg330
g0
(g123
g2
Ntp358
Rp359
(dp360
g24
I00
sg33
I00
sg34
I00
sg127
g199
sg149
Nsbsbsg153
Nsbsg149
Nsbsbsg36
g37
sg38
I13
sV_inProcess
p361
I01
sbsVTFileService
p362
g0
(g109
g2
Ntp363
Rp364
(dp365
g19
g362
sg21
(lp366
VfileName
p367
asg24
I00
sg25
Nsg367
g0
(g199
g2
Ntp368
Rp369
(dp370
g24
I00
sg33
I01
sg34
I00
sg145
VE_Gamma_Demo.root
p371
sbsg34
I00
sg36
g37
sg38
I13
sg361
I01
sbssV_Process__essources
p372
(dp373
sV_Process__esproducers
p374
(dp375
sV_Process__esprefers
p376
(dp377
sV_Process__aliases
p378
(dp379
sV_Process__psets
p380
(dp381
Voptions
p382
g0
(g133
g2
Ntp383
Rp384
(dp385
g24
I00
sg33
I00
sg34
I01
sg21
(lp386
VnumberOfThreads
p387
aVnumberOfStreams
p388
aVnumberOfConcurrentRuns
p389
aVnumberOfConcurrentLuminosityBlocks
p390
aVeventSetup
p391
aVwantSummary
p392
aVfileMode
p393
aVforceEventSetupCacheClearOnNewRun
p394
aVthrowIfIllegalParameter
p395
aVprintDependencies
p396
aVdeleteNonConsumedUnscheduledModules
p397
aVsizeOfStackForThreadsInKB
p398
aVRethrow
p399
aVSkipEvent
p400
aVFailPath
p401
aVIgnoreCompletely
p402
aVcanDeleteEarly
p403
aVdumpOptions
p404
aVallowUnscheduled
p405
aVemptyRunLumiMode
p406
aVmakeTriggerResults
p407
asg25
Nsg387
g0
(cFWCore.ParameterSet.Types
uint32
p408
g2
Ntp409
Rp410
(dp411
g24
I00
sg33
I00
sg34
I00
sg145
I1
sbsg388
g0
(g408
g2
Ntp412
Rp413
(dp414
g24
I00
sg33
I00
sg34
I00
sg145
I0
sbsg389
g0
(g408
g2
Ntp415
Rp416
(dp417
g24
I00
sg33
I00
sg34
I00
sg145
I1
sbsg390
g0
(g408
g2
Ntp418
Rp419
(dp420
g24
I00
sg33
I00
sg34
I00
sg145
I0
sbsg391
g0
(g133
g2
Ntp421
Rp422
(dp423
g24
I00
sg33
I00
sg34
I00
sg21
(lp424
VnumberOfConcurrentIOVs
p425
aVforceNumberOfConcurrentIOVs
p426
asg25
Nsg425
g0
(g408
g2
Ntp427
Rp428
(dp429
g24
I00
sg33
I00
sg34
I00
sg145
I0
sbsg426
g0
(g133
g2
Ntp430
Rp431
(dp432
g24
I00
sg33
I00
sg34
I00
sg21
(lp433
sg25
g0
(cFWCore.ParameterSet.Types
_RequiredParameter
p434
g2
Ntp435
Rp436
(dp437
g24
I00
sg33
I00
sg34
I00
sg127
g408
sg149
Nsbsbsbsg392
g0
(g189
g2
Ntp438
Rp439
(dp440
g24
I00
sg33
I00
sg34
I00
sg145
I00
sbsg393
g0
(g199
g2
Ntp441
Rp442
(dp443
g24
I00
sg33
I00
sg34
I00
sg145
VFULLMERGE
p444
sbsg394
g0
(g189
g2
Ntp445
Rp446
(dp447
g24
I00
sg33
I00
sg34
I00
sg145
I00
sbsg395
g0
(g189
g2
Ntp448
Rp449
(dp450
g24
I00
sg33
I00
sg34
I00
sg145
I01
sbsg396
g0
(g189
g2
Ntp451
Rp452
(dp453
g24
I00
sg33
I00
sg34
I00
sg145
I00
sbsg397
g0
(g189
g2
Ntp454
Rp455
(dp456
g24
I00
sg33
I00
sg34
I00
sg145
I01
sbsg398
g0
(g123
g2
Ntp457
Rp458
(dp459
g24
I00
sg33
I00
sg34
I00
sg127
g408
sg149
Nsbsg399
g0
(g26
g27
(lp460
tp461
Rp462
(dp463
g24
I00
sg33
I00
sg34
I00
sg35
I1
sbsg400
g0
(g26
g27
(lp464
tp465
Rp466
(dp467
g24
I00
sg33
I00
sg34
I00
sg35
I1
sbsg401
g0
(g26
g27
(lp468
tp469
Rp470
(dp471
g24
I00
sg33
I00
sg34
I00
sg35
I1
sbsg402
g0
(g26
g27
(lp472
tp473
Rp474
(dp475
g24
I00
sg33
I00
sg34
I00
sg35
I1
sbsg403
g0
(g26
g27
(lp476
tp477
Rp478
(dp479
g24
I00
sg33
I00
sg34
I00
sg35
I1
sbsg404
g0
(g189
g2
Ntp480
Rp481
(dp482
g24
I00
sg33
I00
sg34
I00
sg145
I00
sbsg405
g0
(cFWCore.ParameterSet.Types
_ObsoleteParameter
p483
g2
Ntp484
Rp485
(dp486
g24
I00
sg33
I00
sg34
I00
sg127
g189
sg149
Nsbsg406
g0
(g483
g2
Ntp487
Rp488
(dp489
g24
I00
sg33
I00
sg34
I00
sg127
g199
sg149
Nsbsg407
g0
(g483
g2
Ntp490
Rp491
(dp492
g24
I00
sg33
I00
sg34
I00
sg127
g189
sg149
Nsbsg63
g382
sbsVmaxLuminosityBlocks
p493
g0
(g133
g2
Ntp494
Rp495
(dp496
g24
I00
sg33
I00
sg34
I00
sg21
(lp497
Vinput
p498
asg25
Nsg498
g0
(g141
g2
Ntp499
Rp500
(dp501
g24
I00
sg33
I00
sg34
I00
sg145
I-1
sbsg63
g493
sbsVmaxEvents
p502
g0
(g133
g2
Ntp503
Rp504
(dp505
g24
I00
sg33
I00
sg34
I01
sg21
(lp506
g498
ag330
asg25
Nsg498
g0
(g141
g2
Ntp507
Rp508
(dp509
g24
I00
sg33
I00
sg34
I00
sg145
I-1
sbsg330
g0
(g123
g2
Ntp510
Rp511
(dp512
g24
I00
sg33
I00
sg34
I00
sg127
g0
(cFWCore.ParameterSet.Types
_AllowedParameterTypes
p513
g2
Ntp514
Rp515
(dp516
V_AllowedParameterTypes__types
p517
(g141
g133
tp518
sV_AllowedParameterTypes__value
p519
NsV__name__
p520
Vallowed(cms.int32,cms.PSet)
p521
sbsg149
Nsbsg63
g502
sbssV_Process__vpsets
p522
(dp523
sV_cloneToObjectDict
p524
(dp525
L139737293284256L
g384
sL139737293314752L
g0
(g133
g2
Ntp526
Rp527
(dp528
g24
I00
sg33
I00
sg34
I01
sg21
(lp529
g498
ag330
asg25
Nsg498
g0
(g123
g2
Ntp530
Rp531
(dp532
g24
I00
sg33
I00
sg34
I00
sg127
g141
sg149
Nsbsg330
g0
(g123
g2
Ntp533
Rp534
(dp535
g24
I00
sg33
I00
sg34
I00
sg127
g0
(g513
g2
Ntp536
Rp537
(dp538
g517
(g141
g133
tp539
sg519
Nsg520
Vallowed(cms.int32,cms.PSet)
p540
sbsg149
Nsbsg63
NsbsL139737293315712L
g495
sL139737295456480L
g504
sL139737295456048L
g48
sL139737295456864L
g73
ssV_Process__InExtendCall
p541
I00
sV_Process__partialschedules
p542
(dp543
sV_Process__isStrict
p544
I00
sV_Process__modifiers
p545
(tsg382
g384
sg493
g495
sg108
g111
sg502
g504
sVsource
p546
g17
sg20
g17
sg362
g364
sg45
g48
sg70
g73
sb.